; Function Attrs: mustprogress nounwind uwtable
define dso_local void @_ZN4llvm21AppleAcceleratorTable8IteratorC2ERKS0_b(ptr noundef nonnull align 8 dereferenceable(196) %0, ptr noundef nonnull align 8 dereferenceable(149) %1, i1 noundef zeroext %2) unnamed_addr #3 align 2 {
  %4 = alloca i64, align 8
  tail call void @_ZN4llvm21AppleAcceleratorTable5EntryC1ERKS0_(ptr noundef nonnull align 8 dereferenceable(180) %0, ptr noundef nonnull align 8 dereferenceable(149) %1) #27
  %5 = getelementptr inbounds nuw i8, ptr %0, i64 176
  store i32 0, ptr %5, align 8
  %6 = getelementptr inbounds nuw i8, ptr %0, i64 184
  %7 = getelementptr inbounds nuw i8, ptr %1, i64 88
  %8 = load i32, ptr %7, align 8
  %9 = zext i32 %8 to i64
  %10 = add nuw nsw i64 %9, 20
  %11 = getelementptr inbounds nuw i8, ptr %1, i64 80
  %12 = load i32, ptr %11, align 8
  %13 = shl i32 %12, 2
  %14 = zext i32 %13 to i64
  %15 = add nuw nsw i64 %10, %14
  %16 = getelementptr inbounds nuw i8, ptr %1, i64 84
  %17 = load i32, ptr %16, align 4
  %18 = shl i32 %17, 2
  %19 = zext i32 %18 to i64
  %reass.add.i = shl nuw nsw i64 %19, 1
  %20 = add nuw nsw i64 %15, %reass.add.i
  store i64 %20, ptr %6, align 8
  %21 = getelementptr inbounds nuw i8, ptr %0, i64 192
  store i32 0, ptr %21, align 8
  br i1 %2, label %22, label %23

22:                                               ; preds = %3
  store i64 -1, ptr %6, align 8
  br label %47

23:                                               ; preds = %3
  call void @llvm.lifetime.start.p0(i64 8, ptr nonnull %4)
  tail call void @_ZN4llvm21AppleAcceleratorTable8Iterator22prepareNextStringOrEndEv(ptr noundef nonnull align 8 dereferenceable(196) %0)
  %24 = load i64, ptr %6, align 8
  %25 = icmp eq i64 %24, -1
  br i1 %25, label %_ZN4llvm21AppleAcceleratorTable8Iterator21prepareNextEntryOrEndEv.exit, label %26

26:                                               ; preds = %23
  store i64 %24, ptr %4, align 8
  %27 = getelementptr inbounds nuw i8, ptr %0, i64 8
  %28 = load ptr, ptr %27, align 8
  %29 = tail call noundef i64 @_ZNK4llvm15SmallVectorBaseIjE4sizeEv(ptr noundef nonnull align 8 dereferenceable(16) %27) #27
  %30 = getelementptr inbounds %"class.llvm::DWARFFormValue", ptr %28, i64 %29
  %.not9.i.i = icmp eq i64 %29, 0
  br i1 %.not9.i.i, label %_ZN4llvm21AppleAcceleratorTable5Entry7extractEPm.exit.i, label %.lr.ph.i.i

.lr.ph.i.i:                                       ; preds = %26
  %31 = getelementptr inbounds nuw i8, ptr %0, i64 168
  br label %32

32:                                               ; preds = %32, %.lr.ph.i.i
  %.010.i.i = phi ptr [ %28, %.lr.ph.i.i ], [ %37, %32 ]
  %33 = load ptr, ptr %31, align 8
  %34 = getelementptr inbounds nuw i8, ptr %33, i64 8
  %35 = getelementptr inbounds nuw i8, ptr %33, i64 136
  %.sroa.0.0.copyload.i.i = load i48, ptr %35, align 8
  %36 = call noundef zeroext i1 @_ZN4llvm14DWARFFormValue12extractValueERKNS_18DWARFDataExtractorEPmNS_5dwarf10FormParamsEPKNS_12DWARFContextEPKNS_9DWARFUnitE(ptr noundef nonnull align 8 dereferenceable(48) %.010.i.i, ptr noundef nonnull align 8 dereferenceable(40) %34, ptr noundef nonnull %4, i48 %.sroa.0.0.copyload.i.i, ptr noundef null, ptr noundef null) #27
  %37 = getelementptr inbounds nuw i8, ptr %.010.i.i, i64 48
  %.not.i.i = icmp eq ptr %37, %30
  br i1 %.not.i.i, label %_ZN4llvm21AppleAcceleratorTable5Entry7extractEPm.exit.i, label %32

_ZN4llvm21AppleAcceleratorTable5Entry7extractEPm.exit.i: ; preds = %32, %26
  %38 = load i32, ptr %21, align 8
  %39 = add i32 %38, -1
  store i32 %39, ptr %21, align 8
  %40 = getelementptr inbounds nuw i8, ptr %0, i64 168
  %41 = load ptr, ptr %40, align 8
  %42 = getelementptr inbounds nuw i8, ptr %41, i64 144
  %43 = load i32, ptr %42, align 8
  %44 = zext i32 %43 to i64
  %45 = load i64, ptr %6, align 8
  %46 = add i64 %45, %44
  store i64 %46, ptr %6, align 8
  br label %_ZN4llvm21AppleAcceleratorTable8Iterator21prepareNextEntryOrEndEv.exit

_ZN4llvm21AppleAcceleratorTable8Iterator21prepareNextEntryOrEndEv.exit: ; preds = %23, %_ZN4llvm21AppleAcceleratorTable5Entry7extractEPm.exit.i
  call void @llvm.lifetime.end.p0(i64 8, ptr nonnull %4)
  br label %47

47:                                               ; preds = %_ZN4llvm21AppleAcceleratorTable8Iterator21prepareNextEntryOrEndEv.exit, %22
  ret void
}